(dp0
I1
S'DENV4'
p1
sI2180
S'DENV3_II'
p2
sI6
S'DENV4_III'
p3
sI1423
S'DENV2_ASIANI'
p4
sI2322
S'DENV3_V'
p5
sI2195
g2
sI2970
S'DENV1'
p6
sI2205
g2
sI2975
S'DENV1_V'
p7
sI4128
S'DENV1_I'
p8
sI34
S'DENV4_I'
p9
sI163
S'DENV4_II'
p10
sI2215
g2
sI2333
S'DENV3_I'
p11
sI2504
S'DENV3_III'
p12
sI1368
S'DENV2_ASIANII'
p13
sI3679
S'DENV1_II'
p14
sI739
S'DENV2_COSMOPOLITAN'
p15
sI1637
S'DENV2_ASIANAMERICAN'
p16
sI3687
S'DENV1_IV'
p17
sI2152
S'DENV3'
p18
sI617
S'DENV2'
p19
sI2155
g2
sI2165
g2
sI631
S'DENV2_AMERICAN'
p20
sI2172
g2
s.